; Function Attrs: mustprogress uwtable
define noundef nonnull ptr @_ZN7rocksdb21NewCuckooTableFactoryERKNS_18CuckooTableOptionsE(ptr noundef nonnull align 8 dereferenceable(18) %0) local_unnamed_addr #4 personality ptr @__gxx_personality_v0 {
  %2 = tail call noalias noundef nonnull dereferenceable(56) ptr @_Znwm(i64 noundef 56) #23
  invoke void @_ZN7rocksdb18CuckooTableFactoryC1ERKNS_18CuckooTableOptionsE(ptr noundef nonnull align 8 dereferenceable(56) %2, ptr noundef nonnull align 8 dereferenceable(18) %0)
          to label %3 unwind label %4

3:                                                ; preds = %1
  ret ptr %2

4:                                                ; preds = %1
  %5 = landingpad { ptr, i32 }
          cleanup
  tail call void @_ZdlPvm(ptr noundef nonnull %2, i64 noundef 56) #22
  resume { ptr, i32 } %5
}